; ModuleID = 'bench/openjdk/original/ResolverConfigurationImpl.ll'
source_filename = "bench/openjdk/original/ResolverConfigurationImpl.ll"
target datalayout = "e-m:e-p270:32:32-p271:32:32-p272:64:64-i64:64-i128:128-f80:128-n8:16:32:64-S128"
target triple = "x86_64-pc-linux-gnu"

; Function Attrs: nounwind uwtable
define ptr @Java_sun_net_dns_ResolverConfigurationImpl_fallbackDomain0(ptr noundef %0, ptr nocapture noundef readnone %1) local_unnamed_addr #0 {
  %3 = alloca [1025 x i8], align 16
  %4 = call i32 @gethostname(ptr noundef nonnull %3, i64 noundef 1025) #3
  %5 = icmp eq i32 %4, 0
  br i1 %5, label %6, label %15

6:                                                ; preds = %2
  %7 = getelementptr inbounds i8, ptr %3, i64 1024
  store i8 0, ptr %7, align 16
  %8 = call ptr @strchr(ptr noundef nonnull dereferenceable(1) %3, i32 noundef 46) #4
  %.not = icmp eq ptr %8, null
  br i1 %.not, label %15, label %9

9:                                                ; preds = %6
  %10 = load ptr, ptr %0, align 8
  %11 = getelementptr inbounds i8, ptr %10, i64 1336
  %12 = load ptr, ptr %11, align 8
  %13 = getelementptr inbounds i8, ptr %8, i64 1
  %14 = call ptr %12(ptr noundef nonnull %0, ptr noundef nonnull %13) #3
  br label %15

15:                                               ; preds = %2, %6, %9
  %.0 = phi ptr [ %14, %9 ], [ null, %6 ], [ null, %2 ]
  ret ptr %.0
}

; Function Attrs: nounwind
declare i32 @gethostname(ptr noundef, i64 noundef) local_unnamed_addr #1

; Function Attrs: mustprogress nofree nounwind willreturn memory(argmem: read)
declare ptr @strchr(ptr noundef, i32 noundef) local_unnamed_addr #2


!llvm.module.flags = !{!0, !1, !2, !3, !4, !5}

!0 = !{i32 7, !"Dwarf Version", i32 5}
!1 = !{i32 2, !"Debug Info Version", i32 3}
!2 = !{i32 1, !"wchar_size", i32 4}
!3 = !{i32 8, !"PIC Level", i32 2}
!4 = !{i32 7, !"uwtable", i32 2}
!5 = !{i32 7, !"frame-pointer", i32 2}
